target datalayout = "e-m:e-p270:32:32-p271:32:32-p272:64:64-i64:64-i128:128-f80:128-n8:16:32:64-S128"
target triple = "x86_64-pc-linux-gnu"

%struct.H5RS_str_t = type { ptr, ptr, i64, i64, i8, i32 }

@H5RS_init_g = global i8 0, align 1
@H5_libterm_g = external global i8, align 1
@.str = private unnamed_addr constant [98 x i8] c"generated/home/dtcxzyw/WorkSpace/Projects/compilers/llvm-opt-benchmark/bench/hdf5/hdf5/src/H5RS.c\00", align 1
@H5E_RS_g = external global i64, align 8
@H5E_CANTALLOC_g = external global i64, align 8
@.str.1 = private unnamed_addr constant [25 x i8] c"memory allocation failed\00", align 1
@__func__.H5RS_wrap = private unnamed_addr constant [10 x i8] c"H5RS_wrap\00", align 1
@H5_H5RS_str_t_reg_free_list = internal global { i8, [3 x i8], i32, i32, [4 x i8], ptr, i64, ptr } { i8 0, [3 x i8] zeroinitializer, i32 0, i32 0, [4 x i8] zeroinitializer, ptr @.str.5, i64 40, ptr null }, align 8

; Function Attrs: nounwind uwtable
define ptr @H5RS_wrap(ptr noundef %0) #0 {
  %2 = alloca ptr, align 8
  %3 = alloca ptr, align 8
  %4 = alloca i8, align 1
  store ptr %0, ptr %2, align 8, !tbaa !3
  call void @llvm.lifetime.start.p0(i64 8, ptr %3) #8
  store ptr null, ptr %3, align 8, !tbaa !8
  call void @llvm.lifetime.start.p0(i64 1, ptr %4) #8
  store i8 0, ptr %4, align 1, !tbaa !10
  %5 = load i8, ptr @H5RS_init_g, align 1, !tbaa !10, !range !12, !noundef !13
  %6 = trunc i8 %5 to i1
  br i1 %6, label %11, label %7

7:                                                ; preds = %1
  %8 = load i8, ptr @H5_libterm_g, align 1, !tbaa !10, !range !12, !noundef !13
  %9 = trunc i8 %8 to i1
  %10 = xor i1 %9, true
  br label %11

11:                                               ; preds = %7, %1
  %12 = phi i1 [ false, %1 ], [ %10, %7 ]
  %13 = xor i1 %12, true
  %14 = xor i1 %13, true
  %15 = zext i1 %14 to i32
  %16 = sext i32 %15 to i64
  %17 = call i64 @llvm.expect.i64(i64 %16, i64 0)
  %18 = icmp ne i64 %17, 0
  br i1 %18, label %19, label %20

19:                                               ; preds = %11
  store i8 1, ptr @H5RS_init_g, align 1, !tbaa !10
  br label %20

20:                                               ; preds = %19, %11
  %21 = load i8, ptr @H5RS_init_g, align 1, !tbaa !10, !range !12, !noundef !13
  %22 = trunc i8 %21 to i1
  br i1 %22, label %27, label %23

23:                                               ; preds = %20
  %24 = load i8, ptr @H5_libterm_g, align 1, !tbaa !10, !range !12, !noundef !13
  %25 = trunc i8 %24 to i1
  %26 = xor i1 %25, true
  br label %27

27:                                               ; preds = %23, %20
  %28 = phi i1 [ true, %20 ], [ %26, %23 ]
  %29 = xor i1 %28, true
  %30 = xor i1 %29, true
  %31 = zext i1 %30 to i32
  %32 = sext i32 %31 to i64
  %33 = call i64 @llvm.expect.i64(i64 %32, i64 1)
  %34 = icmp ne i64 %33, 0
  br i1 %34, label %35, label %81

35:                                               ; preds = %27
  %36 = call noalias ptr @H5FL_reg_malloc(ptr noundef @H5_H5RS_str_t_reg_free_list)
  store ptr %36, ptr %3, align 8, !tbaa !8
  %37 = icmp eq ptr null, %36
  br i1 %37, label %38, label %57

38:                                               ; preds = %35
  br label %39

39:                                               ; preds = %38
  br label %40

40:                                               ; preds = %39
  br label %41

41:                                               ; preds = %40
  %42 = load i64, ptr @H5E_RS_g, align 8, !tbaa !14
  %43 = load i64, ptr @H5E_CANTALLOC_g, align 8, !tbaa !14
  %44 = call i32 (ptr, ptr, i32, i64, i64, ptr, ...) @H5E_printf_stack(ptr noundef @.str, ptr noundef @__func__.H5RS_wrap, i32 noundef 317, i64 noundef %42, i64 noundef %43, ptr noundef @.str.1)
  br label %45

45:                                               ; preds = %41
  br label %46

46:                                               ; preds = %45
  store i8 1, ptr %4, align 1, !tbaa !10
  %47 = load i8, ptr %4, align 1, !tbaa !10, !range !12, !noundef !13
  %48 = trunc i8 %47 to i1
  %49 = zext i1 %48 to i8
  store i8 %49, ptr %4, align 1, !tbaa !10
  br label %50

50:                                               ; preds = %46
  br label %51

51:                                               ; preds = %50
  br label %52

52:                                               ; preds = %51
  store ptr null, ptr %3, align 8, !tbaa !8
  br label %80

53:                                               ; No predecessors!
  br label %54

54:                                               ; preds = %53
  br label %55

55:                                               ; preds = %54
  br label %56

56:                                               ; preds = %55
  br label %57

57:                                               ; preds = %56, %35
  %58 = load ptr, ptr %2, align 8, !tbaa !3
  %59 = load ptr, ptr %3, align 8, !tbaa !8
  %60 = getelementptr inbounds nuw %struct.H5RS_str_t, ptr %59, i32 0, i32 0
  store ptr %58, ptr %60, align 8, !tbaa !23
  %61 = load ptr, ptr %2, align 8, !tbaa !3
  %62 = call i64 @strlen(ptr noundef %61) #9
  %63 = load ptr, ptr %3, align 8, !tbaa !8
  %64 = getelementptr inbounds nuw %struct.H5RS_str_t, ptr %63, i32 0, i32 2
  store i64 %62, ptr %64, align 8, !tbaa !26
  %65 = load ptr, ptr %3, align 8, !tbaa !8
  %66 = getelementptr inbounds nuw %struct.H5RS_str_t, ptr %65, i32 0, i32 0
  %67 = load ptr, ptr %66, align 8, !tbaa !23
  %68 = load ptr, ptr %3, align 8, !tbaa !8
  %69 = getelementptr inbounds nuw %struct.H5RS_str_t, ptr %68, i32 0, i32 2
  %70 = load i64, ptr %69, align 8, !tbaa !26
  %71 = getelementptr inbounds nuw i8, ptr %67, i64 %70
  %72 = load ptr, ptr %3, align 8, !tbaa !8
  %73 = getelementptr inbounds nuw %struct.H5RS_str_t, ptr %72, i32 0, i32 1
  store ptr %71, ptr %73, align 8, !tbaa !24
  %74 = load ptr, ptr %3, align 8, !tbaa !8
  %75 = getelementptr inbounds nuw %struct.H5RS_str_t, ptr %74, i32 0, i32 4
  store i8 1, ptr %75, align 8, !tbaa !27
  %76 = load ptr, ptr %3, align 8, !tbaa !8
  %77 = getelementptr inbounds nuw %struct.H5RS_str_t, ptr %76, i32 0, i32 3
  store i64 0, ptr %77, align 8, !tbaa !20
  %78 = load ptr, ptr %3, align 8, !tbaa !8
  %79 = getelementptr inbounds nuw %struct.H5RS_str_t, ptr %78, i32 0, i32 5
  store i32 1, ptr %79, align 4, !tbaa !16
  br label %80

80:                                               ; preds = %57, %52
  br label %81

81:                                               ; preds = %80, %27
  %82 = load ptr, ptr %3, align 8, !tbaa !8
  call void @llvm.lifetime.end.p0(i64 1, ptr %4) #8
  call void @llvm.lifetime.end.p0(i64 8, ptr %3) #8
  ret ptr %82
}