; Function Attrs: nounwind uwtable
define noalias ptr @H5RS_wrap(ptr noundef %0) local_unnamed_addr #0 {
  %2 = load i8, ptr @H5RS_init_g, align 1, !tbaa !3, !range !7, !noundef !8
  %3 = trunc nuw i8 %2 to i1
  %4 = load i8, ptr @H5_libterm_g, align 1, !range !7
  %5 = trunc nuw i8 %4 to i1
  %6 = select i1 %3, i1 true, i1 %5
  br i1 %6, label %7, label %.thread, !prof !9

.thread:                                          ; preds = %1
  store i8 1, ptr @H5RS_init_g, align 1, !tbaa !3
  br label %10

7:                                                ; preds = %1
  %8 = xor i1 %5, true
  %9 = select i1 %3, i1 true, i1 %8
  br i1 %9, label %10, label %25, !prof !25

10:                                               ; preds = %.thread, %7
  %11 = tail call noalias ptr @H5FL_reg_malloc(ptr noundef nonnull @H5_H5RS_str_t_reg_free_list) #11
  %12 = icmp eq ptr %11, null
  br i1 %12, label %13, label %17

13:                                               ; preds = %10
  %14 = load i64, ptr @H5E_RS_g, align 8, !tbaa !11
  %15 = load i64, ptr @H5E_CANTALLOC_g, align 8, !tbaa !11
  %16 = tail call i32 (ptr, ptr, i32, i64, i64, ptr, ...) @H5E_printf_stack(ptr noundef nonnull @.str, ptr noundef nonnull @__func__.H5RS_wrap, i32 noundef 317, i64 noundef %14, i64 noundef %15, ptr noundef nonnull @.str.1) #11
  br label %25

17:                                               ; preds = %10
  store ptr %0, ptr %11, align 8, !tbaa !20
  %18 = tail call i64 @strlen(ptr noundef nonnull dereferenceable(1) %0) #12
  %19 = getelementptr inbounds nuw i8, ptr %11, i64 16
  store i64 %18, ptr %19, align 8, !tbaa !23
  %20 = getelementptr inbounds nuw i8, ptr %0, i64 %18
  %21 = getelementptr inbounds nuw i8, ptr %11, i64 8
  store ptr %20, ptr %21, align 8, !tbaa !21
  %22 = getelementptr inbounds nuw i8, ptr %11, i64 32
  store i8 1, ptr %22, align 8, !tbaa !26
  %23 = getelementptr inbounds nuw i8, ptr %11, i64 24
  store i64 0, ptr %23, align 8, !tbaa !15
  %24 = getelementptr inbounds nuw i8, ptr %11, i64 36
  store i32 1, ptr %24, align 4, !tbaa !24
  br label %25

25:                                               ; preds = %13, %17, %7
  %.0 = phi ptr [ null, %13 ], [ %11, %17 ], [ null, %7 ]
  ret ptr %.0
}